; Function Attrs: mustprogress nofree norecurse nosync nounwind willreturn memory(read, argmem: readwrite, inaccessiblemem: none) uwtable
define internal range(i32 0, 2) i32 @r_SUFFIX_I_OK(ptr noundef captures(none) %0) #2 {
  %2 = getelementptr inbounds nuw i8, ptr %0, i64 40
  %3 = load ptr, ptr %2, align 8
  %4 = load i32, ptr %3, align 4
  %5 = icmp slt i32 %4, 3
  br i1 %5, label %6, label %18

6:                                                ; preds = %1
  %7 = getelementptr inbounds nuw i8, ptr %0, i64 8
  %8 = load i32, ptr %7, align 8
  %9 = getelementptr inbounds nuw i8, ptr %0, i64 16
  %10 = load i32, ptr %9, align 8
  %.not = icmp sgt i32 %8, %10
  br i1 %.not, label %11, label %18

11:                                               ; preds = %6
  %12 = load ptr, ptr %0, align 8
  %13 = add nsw i32 %8, -1
  %14 = sext i32 %13 to i64
  %15 = getelementptr inbounds i8, ptr %12, i64 %14
  %16 = load i8, ptr %15, align 1
  %.not14 = icmp eq i8 %16, 115
  br i1 %.not14, label %17, label %18

17:                                               ; preds = %11
  store i32 %13, ptr %7, align 8
  br label %18

18:                                               ; preds = %6, %11, %17, %1
  %.012 = phi i32 [ 0, %1 ], [ 0, %17 ], [ 1, %11 ], [ 1, %6 ]
  ret i32 %.012
}